; Function Attrs: nounwind uwtable
define hidden noalias ptr @png_create_read_struct_2(ptr noundef %0, ptr noundef %1, ptr noundef %2, ptr noundef %3, ptr noundef %4, ptr noundef %5, ptr noundef %6) local_unnamed_addr #0 {
  %8 = tail call noalias ptr @png_create_png_struct(ptr noundef %0, ptr noundef %1, ptr noundef %2, ptr noundef %3, ptr noundef %4, ptr noundef %5, ptr noundef %6) #11
  %.not = icmp eq ptr %8, null
  br i1 %.not, label %15, label %9

9:                                                ; preds = %7
  %10 = getelementptr inbounds i8, ptr %8, i64 292
  store i32 32768, ptr %10, align 4
  %11 = getelementptr inbounds i8, ptr %8, i64 1024
  store i32 8192, ptr %11, align 8
  %12 = getelementptr inbounds i8, ptr %8, i64 296
  %13 = load i32, ptr %12, align 8
  %14 = or i32 %13, 3145728
  store i32 %14, ptr %12, align 8
  tail call void @png_set_read_fn(ptr noundef nonnull %8, ptr noundef null, ptr noundef null) #11
  br label %15

15:                                               ; preds = %9, %7
  ret ptr %8
}